; Function Attrs: mustprogress uwtable
define hidden noundef zeroext i1 @_ZNK17asserted_formulas17check_well_sortedEv(ptr noundef nonnull readonly align 8 captures(none) dereferenceable(7236) %0) local_unnamed_addr #3 align 2 {
  %2 = getelementptr inbounds nuw i8, ptr %0, i64 936
  %3 = load ptr, ptr %2, align 8, !tbaa !25
  %4 = icmp eq ptr %3, null
  br i1 %4, label %._crit_edge, label %_ZNK6vectorI14justified_exprLb1EjE3endEv.exit

_ZNK6vectorI14justified_exprLb1EjE3endEv.exit:    ; preds = %1
  %5 = getelementptr inbounds i8, ptr %3, i64 -4
  %6 = load i32, ptr %5, align 4, !tbaa !385
  %7 = zext i32 %6 to i64
  %8 = getelementptr inbounds nuw %class.justified_expr, ptr %3, i64 %7
  %.not13 = icmp eq i32 %6, 0
  br i1 %.not13, label %._crit_edge, label %.lr.ph

.lr.ph:                                           ; preds = %_ZNK6vectorI14justified_exprLb1EjE3endEv.exit, %.lr.ph
  %.01214 = phi ptr [ %13, %.lr.ph ], [ %3, %_ZNK6vectorI14justified_exprLb1EjE3endEv.exit ]
  %9 = load ptr, ptr %0, align 8, !tbaa !352
  %10 = getelementptr inbounds nuw i8, ptr %.01214, i64 8
  %11 = load ptr, ptr %10, align 8, !tbaa !444
  %12 = tail call noundef zeroext i1 @_Z14is_well_sortedRK11ast_managerP4expr(ptr noundef nonnull align 8 dereferenceable(976) %9, ptr noundef %11)
  %13 = getelementptr inbounds nuw i8, ptr %.01214, i64 24
  %.not = icmp ne ptr %13, %8
  %or.cond.not = select i1 %12, i1 %.not, i1 false
  br i1 %or.cond.not, label %.lr.ph, label %._crit_edge

._crit_edge:                                      ; preds = %.lr.ph, %1, %_ZNK6vectorI14justified_exprLb1EjE3endEv.exit
  %.not.lcssa = phi i1 [ true, %_ZNK6vectorI14justified_exprLb1EjE3endEv.exit ], [ true, %1 ], [ %12, %.lr.ph ]
  ret i1 %.not.lcssa
}